; Function Attrs: mustprogress uwtable
define { i64, i64 } @_ZN10ColorUtils15hoverBackgroundEv() local_unnamed_addr #0 align 2 personality ptr @__gxx_personality_v0 {
  %1 = alloca %class.QColor, align 8
  %2 = alloca %class.QPalette, align 8
  call void @_ZN15QGuiApplication7paletteEv(ptr dead_on_unwind nonnull writable sret(%class.QPalette) align 8 %2)
  %3 = invoke noundef nonnull align 8 dereferenceable(8) ptr @_ZNK8QPalette5brushENS_10ColorGroupENS_9ColorRoleE(ptr noundef nonnull align 8 dereferenceable(12) %2, i32 noundef 4, i32 noundef 10)
          to label %_ZNK8QPalette6windowEv.exit unwind label %11

_ZNK8QPalette6windowEv.exit:                      ; preds = %0
  %4 = invoke noundef nonnull align 8 dereferenceable(8) ptr @_ZNK8QPalette5brushENS_10ColorGroupENS_9ColorRoleE(ptr noundef nonnull align 8 dereferenceable(12) %2, i32 noundef 4, i32 noundef 12)
          to label %5 unwind label %11

5:                                                ; preds = %_ZNK8QPalette6windowEv.exit
  %6 = load ptr, ptr %3, align 8
  %7 = getelementptr inbounds i8, ptr %6, i64 8
  %8 = load ptr, ptr %4, align 8
  %9 = getelementptr inbounds i8, ptr %8, i64 8
  %10 = call noundef i32 @_ZN10ColorUtils10alphaBlendERK6QColorS2_d(ptr noundef nonnull align 4 dereferenceable(14) %7, ptr noundef nonnull align 4 dereferenceable(14) %9, double noundef 5.000000e-01)
  call void @_ZN6QColorC1Ej(ptr noundef nonnull align 4 dereferenceable(14) %1, i32 noundef %10) #15
  call void @_ZN8QPaletteD1Ev(ptr noundef nonnull align 8 dereferenceable(12) %2) #15
  %.fca.0.load = load i64, ptr %1, align 8
  %.fca.0.insert = insertvalue { i64, i64 } poison, i64 %.fca.0.load, 0
  %.fca.1.gep = getelementptr inbounds i8, ptr %1, i64 8
  %.fca.1.load = load i64, ptr %.fca.1.gep, align 8
  %.fca.1.insert = insertvalue { i64, i64 } %.fca.0.insert, i64 %.fca.1.load, 1
  ret { i64, i64 } %.fca.1.insert

11:                                               ; preds = %_ZNK8QPalette6windowEv.exit, %0
  %12 = landingpad { ptr, i32 }
          cleanup
  call void @_ZN8QPaletteD1Ev(ptr noundef nonnull align 8 dereferenceable(12) %2) #15
  resume { ptr, i32 } %12
}